target datalayout = "e-m:e-p270:32:32-p271:32:32-p272:64:64-i64:64-i128:128-f80:128-n8:16:32:64-S128"
target triple = "x86_64-pc-linux-gnu"

%"class.gmx::AnalysisDataParallelOptions" = type { i32 }
%class.anon = type { i8 }

@.str = private unnamed_addr constant [27 x i8] c"parallelizationFactor >= 1\00", align 1
@.str.1 = private unnamed_addr constant [31 x i8] c"Invalid parallelization factor\00", align 1
@"__PRETTY_FUNCTION__._ZZN3gmx27AnalysisDataParallelOptionsC1EiENK3$_0clEv" = private unnamed_addr constant [111 x i8] c"auto gmx::AnalysisDataParallelOptions::AnalysisDataParallelOptions(int)::(anonymous class)::operator()() const\00", align 1
@.str.2 = private unnamed_addr constant [134 x i8] c"generated/home/dtcxzyw/WorkSpace/Projects/compilers/llvm-opt-benchmark/bench/gromacs/gromacs/src/gromacs/analysisdata/datastorage.cpp\00", align 1

; Function Attrs: mustprogress uwtable
define internal void @"_ZZN3gmx27AnalysisDataParallelOptionsC1EiENK3$_0clEv"(ptr noundef nonnull align 1 dereferenceable(1) %0) #1 align 2 {
  %2 = alloca ptr, align 8
  store ptr %0, ptr %2, align 8
  call void @_ZN3gmx8internal13assertHandlerEPKcS2_S2_S2_i(ptr noundef @.str, ptr noundef @.str.1, ptr noundef @"__PRETTY_FUNCTION__._ZZN3gmx27AnalysisDataParallelOptionsC1EiENK3$_0clEv", ptr noundef @.str.2, i32 noundef 72) #11
  unreachable
}

; Function Attrs: mustprogress uwtable
define void @_ZN3gmx27AnalysisDataParallelOptionsC2Ei(ptr noundef nonnull align 4 dereferenceable(4) %0, i32 noundef %1) unnamed_addr #1 align 2 {
  %3 = alloca ptr, align 8
  %4 = alloca i32, align 4
  %5 = alloca %class.anon, align 1
  store ptr %0, ptr %3, align 8
  store i32 %1, ptr %4, align 4
  %6 = load ptr, ptr %3, align 8
  %7 = getelementptr inbounds %"class.gmx::AnalysisDataParallelOptions", ptr %6, i32 0, i32 0
  %8 = load i32, ptr %4, align 4
  store i32 %8, ptr %7, align 4
  %9 = load i32, ptr %4, align 4
  %10 = icmp sge i32 %9, 1
  br i1 %10, label %11, label %12

11:                                               ; preds = %2
  br label %13

12:                                               ; preds = %2
  call void @"_ZZN3gmx27AnalysisDataParallelOptionsC1EiENK3$_0clEv"(ptr noundef nonnull align 1 dereferenceable(1) %5)
  br label %13

13:                                               ; preds = %12, %11
  ret void
}