; Function Attrs: mustprogress uwtable
define void @_ZN3gmx27AnalysisDataParallelOptionsC2Ei(ptr nocapture noundef nonnull writeonly align 4 dereferenceable(4) %0, i32 noundef %1) unnamed_addr #1 align 2 {
  store i32 %1, ptr %0, align 4
  %3 = icmp sgt i32 %1, 0
  br i1 %3, label %5, label %4

4:                                                ; preds = %2
  tail call void @_ZN3gmx8internal13assertHandlerEPKcS2_S2_S2_i(ptr noundef nonnull @.str, ptr noundef nonnull @.str.1, ptr noundef nonnull @"__PRETTY_FUNCTION__._ZZN3gmx27AnalysisDataParallelOptionsC1EiENK3$_0clEv", ptr noundef nonnull @.str.2, i32 noundef 72) #19
  unreachable

5:                                                ; preds = %2
  ret void
}